target datalayout = "e-m:e-p270:32:32-p271:32:32-p272:64:64-i64:64-i128:128-f80:128-n8:16:32:64-S128"
target triple = "x86_64-pc-linux-gnu"

%struct.Maj3_Man_t_ = type { i32, i32, i32, i32, i32, ptr, ptr, [32 x [32 x i32]], [32 x i32], [2 x [32 x i32]], [3 x i32], ptr }
%struct.Vec_Int_t_ = type { i32, i32, ptr }

; Function Attrs: nounwind uwtable
define internal i32 @Vec_IntEntry(ptr noundef %0, i32 noundef %1) #0 {
  %3 = alloca ptr, align 8
  %4 = alloca i32, align 4
  store ptr %0, ptr %3, align 8
  store i32 %1, ptr %4, align 4
  %5 = load ptr, ptr %3, align 8
  %6 = getelementptr inbounds %struct.Vec_Int_t_, ptr %5, i32 0, i32 2
  %7 = load ptr, ptr %6, align 8
  %8 = load i32, ptr %4, align 4
  %9 = sext i32 %8 to i64
  %10 = getelementptr inbounds i32, ptr %7, i64 %9
  %11 = load i32, ptr %10, align 4
  ret i32 %11
}

; Function Attrs: nounwind uwtable
define internal i32 @Vec_IntSize(ptr noundef %0) #0 {
  %2 = alloca ptr, align 8
  store ptr %0, ptr %2, align 8
  %3 = load ptr, ptr %2, align 8
  %4 = getelementptr inbounds %struct.Vec_Int_t_, ptr %3, i32 0, i32 1
  %5 = load i32, ptr %4, align 4
  ret i32 %5
}

; Function Attrs: nounwind uwtable
define i32 @Maj3_ManMarkup(ptr noundef %0) #0 {
  %2 = alloca ptr, align 8
  %3 = alloca i32, align 4
  %4 = alloca i32, align 4
  %5 = alloca i32, align 4
  %6 = alloca i32, align 4
  %7 = alloca i32, align 4
  %8 = alloca [32 x i32], align 16
  %9 = alloca [32 x i32], align 16
  store ptr %0, ptr %2, align 8
  store i32 2, ptr %3, align 4
  %10 = load ptr, ptr %2, align 8
  %11 = getelementptr inbounds %struct.Maj3_Man_t_, ptr %10, i32 0, i32 6
  %12 = load ptr, ptr %11, align 8
  %13 = call i32 @Vec_IntSize(ptr noundef %12)
  store i32 %13, ptr %4, align 4
  %14 = load ptr, ptr %2, align 8
  %15 = getelementptr inbounds %struct.Maj3_Man_t_, ptr %14, i32 0, i32 6
  %16 = load ptr, ptr %15, align 8
  %17 = call i32 @Vec_IntEntry(ptr noundef %16, i32 noundef 1)
  store i32 %17, ptr %5, align 4
  %18 = load ptr, ptr %2, align 8
  %19 = getelementptr inbounds %struct.Maj3_Man_t_, ptr %18, i32 0, i32 6
  %20 = load ptr, ptr %19, align 8
  %21 = getelementptr inbounds [32 x i32], ptr %8, i64 0, i64 0
  %22 = getelementptr inbounds [32 x i32], ptr %9, i64 0, i64 0
  %23 = load ptr, ptr %2, align 8
  %24 = getelementptr inbounds %struct.Maj3_Man_t_, ptr %23, i32 0, i32 0
  %25 = load i32, ptr %24, align 8
  %26 = load ptr, ptr %2, align 8
  %27 = getelementptr inbounds %struct.Maj3_Man_t_, ptr %26, i32 0, i32 2
  %28 = load i32, ptr %27, align 8
  call void @Maj3_ManFirstAndLevel(ptr noundef %20, ptr noundef %21, ptr noundef %22, i32 noundef %25, i32 noundef %28)
  store i32 0, ptr %6, align 4
  br label %29

29:                                               ; preds = %55, %1
  %30 = load i32, ptr %6, align 4
  %31 = load ptr, ptr %2, align 8
  %32 = getelementptr inbounds %struct.Maj3_Man_t_, ptr %31, i32 0, i32 2
  %33 = load i32, ptr %32, align 8
  %34 = icmp slt i32 %30, %33
  br i1 %34, label %35, label %58

35:                                               ; preds = %29
  store i32 0, ptr %7, align 4
  br label %36

36:                                               ; preds = %51, %35
  %37 = load i32, ptr %7, align 4
  %38 = load ptr, ptr %2, align 8
  %39 = getelementptr inbounds %struct.Maj3_Man_t_, ptr %38, i32 0, i32 2
  %40 = load i32, ptr %39, align 8
  %41 = icmp slt i32 %37, %40
  br i1 %41, label %42, label %54

42:                                               ; preds = %36
  %43 = load ptr, ptr %2, align 8
  %44 = getelementptr inbounds %struct.Maj3_Man_t_, ptr %43, i32 0, i32 7
  %45 = load i32, ptr %6, align 4
  %46 = sext i32 %45 to i64
  %47 = getelementptr inbounds [32 x [32 x i32]], ptr %44, i64 0, i64 %46
  %48 = load i32, ptr %7, align 4
  %49 = sext i32 %48 to i64
  %50 = getelementptr inbounds [32 x i32], ptr %47, i64 0, i64 %49
  store i32 -1, ptr %50, align 4
  br label %51

51:                                               ; preds = %42
  %52 = load i32, ptr %7, align 4
  %53 = add nsw i32 %52, 1
  store i32 %53, ptr %7, align 4
  br label %36, !llvm.loop !14

54:                                               ; preds = %36
  br label %55

55:                                               ; preds = %54
  %56 = load i32, ptr %6, align 4
  %57 = add nsw i32 %56, 1
  store i32 %57, ptr %6, align 4
  br label %29, !llvm.loop !15

58:                                               ; preds = %29
  store i32 0, ptr %7, align 4
  br label %59

59:                                               ; preds = %73, %58
  %60 = load i32, ptr %7, align 4
  %61 = icmp slt i32 %60, 3
  br i1 %61, label %62, label %76

62:                                               ; preds = %59
  %63 = load ptr, ptr %2, align 8
  %64 = getelementptr inbounds %struct.Maj3_Man_t_, ptr %63, i32 0, i32 7
  %65 = load ptr, ptr %2, align 8
  %66 = getelementptr inbounds %struct.Maj3_Man_t_, ptr %65, i32 0, i32 0
  %67 = load i32, ptr %66, align 8
  %68 = sext i32 %67 to i64
  %69 = getelementptr inbounds [32 x [32 x i32]], ptr %64, i64 0, i64 %68
  %70 = load i32, ptr %7, align 4
  %71 = sext i32 %70 to i64
  %72 = getelementptr inbounds [32 x i32], ptr %69, i64 0, i64 %71
  store i32 1, ptr %72, align 4
  br label %73

73:                                               ; preds = %62
  %74 = load i32, ptr %7, align 4
  %75 = add nsw i32 %74, 1
  store i32 %75, ptr %7, align 4
  br label %59, !llvm.loop !16

76:                                               ; preds = %59
  store i32 0, ptr %7, align 4
  br label %77

77:                                               ; preds = %98, %76
  %78 = load i32, ptr %7, align 4
  %79 = load i32, ptr %5, align 4
  %80 = icmp slt i32 %78, %79
  br i1 %80, label %81, label %101

81:                                               ; preds = %77
  %82 = load ptr, ptr %2, align 8
  %83 = getelementptr inbounds %struct.Maj3_Man_t_, ptr %82, i32 0, i32 7
  %84 = load ptr, ptr %2, align 8
  %85 = getelementptr inbounds %struct.Maj3_Man_t_, ptr %84, i32 0, i32 2
  %86 = load i32, ptr %85, align 8
  %87 = sub nsw i32 %86, 1
  %88 = sext i32 %87 to i64
  %89 = getelementptr inbounds [32 x [32 x i32]], ptr %83, i64 0, i64 %88
  %90 = load ptr, ptr %2, align 8
  %91 = getelementptr inbounds %struct.Maj3_Man_t_, ptr %90, i32 0, i32 2
  %92 = load i32, ptr %91, align 8
  %93 = sub nsw i32 %92, 2
  %94 = load i32, ptr %7, align 4
  %95 = sub nsw i32 %93, %94
  %96 = sext i32 %95 to i64
  %97 = getelementptr inbounds [32 x i32], ptr %89, i64 0, i64 %96
  store i32 1, ptr %97, align 4
  br label %98

98:                                               ; preds = %81
  %99 = load i32, ptr %7, align 4
  %100 = add nsw i32 %99, 1
  store i32 %100, ptr %7, align 4
  br label %77, !llvm.loop !17

101:                                              ; preds = %77
  store i32 2, ptr %7, align 4
  br label %102

102:                                              ; preds = %122, %101
  %103 = load i32, ptr %7, align 4
  %104 = load i32, ptr %4, align 4
  %105 = icmp slt i32 %103, %104
  br i1 %105, label %106, label %125

106:                                              ; preds = %102
  %107 = load ptr, ptr %2, align 8
  %108 = getelementptr inbounds %struct.Maj3_Man_t_, ptr %107, i32 0, i32 7
  %109 = load i32, ptr %7, align 4
  %110 = sext i32 %109 to i64
  %111 = getelementptr inbounds [32 x i32], ptr %8, i64 0, i64 %110
  %112 = load i32, ptr %111, align 4
  %113 = sext i32 %112 to i64
  %114 = getelementptr inbounds [32 x [32 x i32]], ptr %108, i64 0, i64 %113
  %115 = load i32, ptr %7, align 4
  %116 = sub nsw i32 %115, 1
  %117 = sext i32 %116 to i64
  %118 = getelementptr inbounds [32 x i32], ptr %8, i64 0, i64 %117
  %119 = load i32, ptr %118, align 4
  %120 = sext i32 %119 to i64
  %121 = getelementptr inbounds [32 x i32], ptr %114, i64 0, i64 %120
  store i32 1, ptr %121, align 4
  br label %122

122:                                              ; preds = %106
  %123 = load i32, ptr %7, align 4
  %124 = add nsw i32 %123, 1
  store i32 %124, ptr %7, align 4
  br label %102, !llvm.loop !18

125:                                              ; preds = %102
  %126 = load ptr, ptr %2, align 8
  %127 = getelementptr inbounds %struct.Maj3_Man_t_, ptr %126, i32 0, i32 0
  %128 = load i32, ptr %127, align 8
  %129 = add nsw i32 %128, 1
  store i32 %129, ptr %6, align 4
  br label %130

130:                                              ; preds = %184, %125
  %131 = load i32, ptr %6, align 4
  %132 = load i32, ptr %5, align 4
  %133 = icmp eq i32 %132, 3
  br i1 %133, label %134, label %139

134:                                              ; preds = %130
  %135 = load ptr, ptr %2, align 8
  %136 = getelementptr inbounds %struct.Maj3_Man_t_, ptr %135, i32 0, i32 2
  %137 = load i32, ptr %136, align 8
  %138 = sub nsw i32 %137, 1
  br label %143

139:                                              ; preds = %130
  %140 = load ptr, ptr %2, align 8
  %141 = getelementptr inbounds %struct.Maj3_Man_t_, ptr %140, i32 0, i32 2
  %142 = load i32, ptr %141, align 8
  br label %143

143:                                              ; preds = %139, %134
  %144 = phi i32 [ %138, %134 ], [ %142, %139 ]
  %145 = icmp slt i32 %131, %144
  br i1 %145, label %146, label %187

146:                                              ; preds = %143
  store i32 0, ptr %7, align 4
  br label %147

147:                                              ; preds = %180, %146
  %148 = load i32, ptr %7, align 4
  %149 = load i32, ptr %6, align 4
  %150 = sext i32 %149 to i64
  %151 = getelementptr inbounds [32 x i32], ptr %9, i64 0, i64 %150
  %152 = load i32, ptr %151, align 4
  %153 = sext i32 %152 to i64
  %154 = getelementptr inbounds [32 x i32], ptr %8, i64 0, i64 %153
  %155 = load i32, ptr %154, align 4
  %156 = icmp slt i32 %148, %155
  br i1 %156, label %157, label %183

157:                                              ; preds = %147
  %158 = load ptr, ptr %2, align 8
  %159 = getelementptr inbounds %struct.Maj3_Man_t_, ptr %158, i32 0, i32 7
  %160 = load i32, ptr %6, align 4
  %161 = sext i32 %160 to i64
  %162 = getelementptr inbounds [32 x [32 x i32]], ptr %159, i64 0, i64 %161
  %163 = load i32, ptr %7, align 4
  %164 = sext i32 %163 to i64
  %165 = getelementptr inbounds [32 x i32], ptr %162, i64 0, i64 %164
  %166 = load i32, ptr %165, align 4
  %167 = icmp eq i32 %166, -1
  br i1 %167, label %168, label %179

168:                                              ; preds = %157
  %169 = load i32, ptr %3, align 4
  %170 = add nsw i32 %169, 1
  store i32 %170, ptr %3, align 4
  %171 = load ptr, ptr %2, align 8
  %172 = getelementptr inbounds %struct.Maj3_Man_t_, ptr %171, i32 0, i32 7
  %173 = load i32, ptr %6, align 4
  %174 = sext i32 %173 to i64
  %175 = getelementptr inbounds [32 x [32 x i32]], ptr %172, i64 0, i64 %174
  %176 = load i32, ptr %7, align 4
  %177 = sext i32 %176 to i64
  %178 = getelementptr inbounds [32 x i32], ptr %175, i64 0, i64 %177
  store i32 %169, ptr %178, align 4
  br label %179

179:                                              ; preds = %168, %157
  br label %180

180:                                              ; preds = %179
  %181 = load i32, ptr %7, align 4
  %182 = add nsw i32 %181, 1
  store i32 %182, ptr %7, align 4
  br label %147, !llvm.loop !19

183:                                              ; preds = %147
  br label %184

184:                                              ; preds = %183
  %185 = load i32, ptr %6, align 4
  %186 = add nsw i32 %185, 1
  store i32 %186, ptr %6, align 4
  br label %130, !llvm.loop !20

187:                                              ; preds = %143
  %188 = load i32, ptr %3, align 4
  ret i32 %188
}