; Function Attrs: nofree norecurse nosync nounwind memory(readwrite, inaccessiblemem: none) uwtable
define i32 @Maj3_ManMarkup(ptr noundef captures(none) %0) local_unnamed_addr #1 {
  %2 = alloca [32 x i32], align 16
  %3 = alloca [32 x i32], align 16
  %4 = getelementptr inbounds nuw i8, ptr %0, i64 32
  %5 = load ptr, ptr %4, align 8
  %6 = getelementptr i8, ptr %5, i64 4
  %.val = load i32, ptr %6, align 4
  %7 = getelementptr i8, ptr %5, i64 8
  %.val54 = load ptr, ptr %7, align 8
  %8 = getelementptr inbounds nuw i8, ptr %.val54, i64 4
  %9 = load i32, ptr %8, align 4
  %10 = load i32, ptr %0, align 8
  %11 = getelementptr inbounds nuw i8, ptr %0, i64 8
  call void @Maj3_ManFirstAndLevel(ptr noundef %5, ptr noundef nonnull %2, ptr noundef nonnull %3, i32 noundef %10, i32 poison)
  %12 = load i32, ptr %11, align 8
  %13 = icmp sgt i32 %12, 0
  br i1 %13, label %.preheader58.lr.ph, label %.preheader57

.preheader58.lr.ph:                               ; preds = %1
  %14 = zext nneg i32 %12 to i64
  %15 = shl nuw nsw i64 %14, 2
  br label %.preheader58.us

.preheader58.us:                                  ; preds = %.preheader58.us, %.preheader58.lr.ph
  %indvar = phi i64 [ %indvar.next, %.preheader58.us ], [ 0, %.preheader58.lr.ph ]
  %16 = shl nuw nsw i64 %indvar, 7
  %17 = or disjoint i64 %16, 40
  %scevgep = getelementptr i8, ptr %0, i64 %17
  tail call void @llvm.memset.p0.i64(ptr align 4 %scevgep, i8 -1, i64 %15, i1 false)
  %indvar.next = add nuw nsw i64 %indvar, 1
  %exitcond.not = icmp eq i64 %indvar.next, %14
  br i1 %exitcond.not, label %.preheader57, label %.preheader58.us, !llvm.loop !13

.preheader57:                                     ; preds = %.preheader58.us, %1
  %18 = getelementptr inbounds nuw i8, ptr %0, i64 40
  br label %20

.preheader56:                                     ; preds = %20
  %19 = icmp sgt i32 %9, 0
  br i1 %19, label %.lr.ph, label %.preheader55

20:                                               ; preds = %.preheader57, %20
  %indvars.iv = phi i64 [ 0, %.preheader57 ], [ %indvars.iv.next, %20 ]
  %21 = load i32, ptr %0, align 8
  %22 = sext i32 %21 to i64
  %23 = getelementptr inbounds [32 x [32 x i32]], ptr %18, i64 0, i64 %22, i64 %indvars.iv
  store i32 1, ptr %23, align 4
  %indvars.iv.next = add nuw nsw i64 %indvars.iv, 1
  %exitcond71.not = icmp eq i64 %indvars.iv.next, 3
  br i1 %exitcond71.not, label %.preheader56, label %20, !llvm.loop !14

.preheader55:                                     ; preds = %.lr.ph, %.preheader56
  %24 = icmp sgt i32 %.val, 2
  br i1 %24, label %.lr.ph64, label %._crit_edge

.lr.ph64:                                         ; preds = %.preheader55
  %wide.trip.count76 = zext nneg i32 %.val to i64
  %.phi.trans.insert = getelementptr inbounds nuw i8, ptr %2, i64 4
  %.pre = load i32, ptr %.phi.trans.insert, align 4
  br label %32

.lr.ph:                                           ; preds = %.preheader56, %.lr.ph
  %.262 = phi i32 [ %31, %.lr.ph ], [ 0, %.preheader56 ]
  %25 = load i32, ptr %11, align 8
  %26 = add nsw i32 %25, -1
  %27 = sext i32 %26 to i64
  %reass.sub = sub i32 %25, %.262
  %28 = add i32 %reass.sub, -2
  %29 = sext i32 %28 to i64
  %30 = getelementptr inbounds [32 x [32 x i32]], ptr %18, i64 0, i64 %27, i64 %29
  store i32 1, ptr %30, align 4
  %31 = add nuw nsw i32 %.262, 1
  %exitcond72.not = icmp eq i32 %31, %9
  br i1 %exitcond72.not, label %.preheader55, label %.lr.ph, !llvm.loop !15

32:                                               ; preds = %.lr.ph64, %32
  %33 = phi i32 [ %.pre, %.lr.ph64 ], [ %35, %32 ]
  %indvars.iv73 = phi i64 [ 2, %.lr.ph64 ], [ %indvars.iv.next74, %32 ]
  %34 = getelementptr inbounds nuw [32 x i32], ptr %2, i64 0, i64 %indvars.iv73
  %35 = load i32, ptr %34, align 4
  %36 = sext i32 %35 to i64
  %37 = sext i32 %33 to i64
  %38 = getelementptr inbounds [32 x [32 x i32]], ptr %18, i64 0, i64 %36, i64 %37
  store i32 1, ptr %38, align 4
  %indvars.iv.next74 = add nuw nsw i64 %indvars.iv73, 1
  %exitcond77.not = icmp eq i64 %indvars.iv.next74, %wide.trip.count76
  br i1 %exitcond77.not, label %._crit_edge, label %32, !llvm.loop !16

._crit_edge:                                      ; preds = %32, %.preheader55
  %39 = load i32, ptr %0, align 8
  %40 = icmp eq i32 %9, 3
  %41 = sext i32 %39 to i64
  %indvars.iv.next8486 = add nsw i64 %41, 1
  %42 = load i32, ptr %11, align 8
  %43 = sext i1 %40 to i32
  %44 = add nsw i32 %42, %43
  %45 = sext i32 %44 to i64
  %46 = icmp slt i64 %indvars.iv.next8486, %45
  br i1 %46, label %.preheader, label %._crit_edge89

.loopexit:                                        ; preds = %62, %.preheader
  %.151.lcssa = phi i32 [ %.05087, %.preheader ], [ %.252, %62 ]
  %indvars.iv.next84 = add nsw i64 %indvars.iv.next8488, 1
  %47 = load i32, ptr %11, align 8
  %48 = add nsw i32 %47, %43
  %49 = sext i32 %48 to i64
  %50 = icmp slt i64 %indvars.iv.next84, %49
  br i1 %50, label %.preheader, label %._crit_edge89, !llvm.loop !17

.preheader:                                       ; preds = %._crit_edge, %.loopexit
  %indvars.iv.next8488 = phi i64 [ %indvars.iv.next84, %.loopexit ], [ %indvars.iv.next8486, %._crit_edge ]
  %.05087 = phi i32 [ %.151.lcssa, %.loopexit ], [ 2, %._crit_edge ]
  %51 = getelementptr inbounds [32 x i32], ptr %3, i64 0, i64 %indvars.iv.next8488
  %52 = load i32, ptr %51, align 4
  %53 = sext i32 %52 to i64
  %54 = getelementptr inbounds [32 x i32], ptr %2, i64 0, i64 %53
  %55 = load i32, ptr %54, align 4
  %56 = icmp sgt i32 %55, 0
  br i1 %56, label %.lr.ph67.preheader, label %.loopexit

.lr.ph67.preheader:                               ; preds = %.preheader
  %wide.trip.count81 = zext nneg i32 %55 to i64
  br label %.lr.ph67

.lr.ph67:                                         ; preds = %.lr.ph67.preheader, %62
  %indvars.iv78 = phi i64 [ 0, %.lr.ph67.preheader ], [ %indvars.iv.next79, %62 ]
  %.15165 = phi i32 [ %.05087, %.lr.ph67.preheader ], [ %.252, %62 ]
  %57 = getelementptr inbounds [32 x [32 x i32]], ptr %18, i64 0, i64 %indvars.iv.next8488, i64 %indvars.iv78
  %58 = load i32, ptr %57, align 4
  %59 = icmp eq i32 %58, -1
  br i1 %59, label %60, label %62

60:                                               ; preds = %.lr.ph67
  %61 = add nsw i32 %.15165, 1
  store i32 %.15165, ptr %57, align 4
  br label %62

62:                                               ; preds = %.lr.ph67, %60
  %.252 = phi i32 [ %61, %60 ], [ %.15165, %.lr.ph67 ]
  %indvars.iv.next79 = add nuw nsw i64 %indvars.iv78, 1
  %exitcond82.not = icmp eq i64 %indvars.iv.next79, %wide.trip.count81
  br i1 %exitcond82.not, label %.loopexit, label %.lr.ph67, !llvm.loop !18

._crit_edge89:                                    ; preds = %.loopexit, %._crit_edge
  %.050.lcssa = phi i32 [ 2, %._crit_edge ], [ %.151.lcssa, %.loopexit ]
  ret i32 %.050.lcssa
}